target datalayout = "e-m:e-p270:32:32-p271:32:32-p272:64:64-i64:64-i128:128-f80:128-n8:16:32:64-S128"
target triple = "x86_64-pc-linux-gnu"

%"class.__gnu_cxx::__normal_iterator.106" = type { ptr }
%"class.testing::internal::ValuesInIteratorRangeGenerator<perf::(anonymous namespace)::MatDepth>::Iterator" = type { %"class.testing::internal::ParamIteratorInterface.105", ptr, %"class.__gnu_cxx::__normal_iterator.106", %"class.testing::internal::scoped_ptr.107" }
%"class.testing::internal::ParamIteratorInterface.105" = type { ptr }
%"class.testing::internal::scoped_ptr.107" = type { ptr }

; Function Attrs: mustprogress nounwind uwtable
define internal void @_ZN7testing8internal22ParamIteratorInterfaceIN4perf12_GLOBAL__N_18MatDepthEED2Ev(ptr noundef nonnull align 8 dereferenceable(8) %0) unnamed_addr #9 align 2 {
  %2 = alloca ptr, align 8
  store ptr %0, ptr %2, align 8, !tbaa !452
  ret void
}

; Function Attrs: mustprogress nounwind uwtable
define internal void @_ZN7testing8internal10scoped_ptrIKN4perf12_GLOBAL__N_18MatDepthEEC2EPS5_(ptr noundef nonnull align 8 dereferenceable(8) %0, ptr noundef %1) unnamed_addr #9 align 2 {
  %3 = alloca ptr, align 8
  %4 = alloca ptr, align 8
  store ptr %0, ptr %3, align 8, !tbaa !454
  store ptr %1, ptr %4, align 8, !tbaa !98
  %5 = load ptr, ptr %3, align 8
  %6 = getelementptr inbounds nuw %"class.testing::internal::scoped_ptr.107", ptr %5, i32 0, i32 0
  %7 = load ptr, ptr %4, align 8, !tbaa !98
  store ptr %7, ptr %6, align 8, !tbaa !456
  ret void
}

; Function Attrs: inlinehint mustprogress nounwind uwtable
define internal void @_ZN7testing8internal22ParamIteratorInterfaceIN4perf12_GLOBAL__N_18MatDepthEEC2Ev(ptr noundef nonnull align 8 dereferenceable(8) %0) unnamed_addr #4 align 2 {
  %2 = alloca ptr, align 8
  store ptr %0, ptr %2, align 8, !tbaa !452
  %3 = load ptr, ptr %2, align 8
  store ptr getelementptr inbounds inrange(-16, 56) ({ [9 x ptr] }, ptr @_ZTVN7testing8internal22ParamIteratorInterfaceIN4perf12_GLOBAL__N_18MatDepthEEE, i32 0, i32 0, i32 2), ptr %3, align 8, !tbaa !20
  ret void
}

; Function Attrs: mustprogress uwtable
define internal void @_ZN7testing8internal30ValuesInIteratorRangeGeneratorIN4perf12_GLOBAL__N_18MatDepthEE8IteratorC2ERKS6_(ptr noundef nonnull align 8 dereferenceable(32) %0, ptr noundef nonnull align 8 dereferenceable(32) %1) unnamed_addr #6 align 2 personality ptr @__gxx_personality_v0 {
  %3 = alloca ptr, align 8
  %4 = alloca ptr, align 8
  %5 = alloca ptr, align 8
  %6 = alloca i32, align 4
  store ptr %0, ptr %3, align 8, !tbaa !441
  store ptr %1, ptr %4, align 8, !tbaa !441
  %7 = load ptr, ptr %3, align 8
  %8 = getelementptr inbounds i8, ptr %7, i64 0
  call void @llvm.memset.p0.i64(ptr align 8 %8, i8 0, i64 8, i1 false)
  call void @_ZN7testing8internal22ParamIteratorInterfaceIN4perf12_GLOBAL__N_18MatDepthEEC2Ev(ptr noundef nonnull align 8 dereferenceable(8) %7) #3
  store ptr getelementptr inbounds inrange(-16, 56) ({ [9 x ptr] }, ptr @_ZTVN7testing8internal30ValuesInIteratorRangeGeneratorIN4perf12_GLOBAL__N_18MatDepthEE8IteratorE, i32 0, i32 0, i32 2), ptr %7, align 8, !tbaa !20
  %9 = getelementptr inbounds nuw %"class.testing::internal::ValuesInIteratorRangeGenerator<perf::(anonymous namespace)::MatDepth>::Iterator", ptr %7, i32 0, i32 1
  %10 = load ptr, ptr %4, align 8, !tbaa !441
  %11 = getelementptr inbounds nuw %"class.testing::internal::ValuesInIteratorRangeGenerator<perf::(anonymous namespace)::MatDepth>::Iterator", ptr %10, i32 0, i32 1
  %12 = load ptr, ptr %11, align 8, !tbaa !443
  store ptr %12, ptr %9, align 8, !tbaa !443
  %13 = getelementptr inbounds nuw %"class.testing::internal::ValuesInIteratorRangeGenerator<perf::(anonymous namespace)::MatDepth>::Iterator", ptr %7, i32 0, i32 2
  %14 = load ptr, ptr %4, align 8, !tbaa !441
  %15 = getelementptr inbounds nuw %"class.testing::internal::ValuesInIteratorRangeGenerator<perf::(anonymous namespace)::MatDepth>::Iterator", ptr %14, i32 0, i32 2
  call void @llvm.memcpy.p0.p0.i64(ptr align 8 %13, ptr align 8 %15, i64 8, i1 false), !tbaa.struct !448
  %16 = getelementptr inbounds nuw %"class.testing::internal::ValuesInIteratorRangeGenerator<perf::(anonymous namespace)::MatDepth>::Iterator", ptr %7, i32 0, i32 3
  invoke void @_ZN7testing8internal10scoped_ptrIKN4perf12_GLOBAL__N_18MatDepthEEC2EPS5_(ptr noundef nonnull align 8 dereferenceable(8) %16, ptr noundef null)
          to label %17 unwind label %18

17:                                               ; preds = %2
  ret void

18:                                               ; preds = %2
  %19 = landingpad { ptr, i32 }
          cleanup
  %20 = extractvalue { ptr, i32 } %19, 0
  store ptr %20, ptr %5, align 8
  %21 = extractvalue { ptr, i32 } %19, 1
  store i32 %21, ptr %6, align 4
  call void @_ZN7testing8internal22ParamIteratorInterfaceIN4perf12_GLOBAL__N_18MatDepthEED2Ev(ptr noundef nonnull align 8 dereferenceable(8) %7) #3
  br label %22

22:                                               ; preds = %18
  %23 = load ptr, ptr %5, align 8
  %24 = load i32, ptr %6, align 4
  %25 = insertvalue { ptr, i32 } poison, ptr %23, 0
  %26 = insertvalue { ptr, i32 } %25, i32 %24, 1
  resume { ptr, i32 } %26
}

; Function Attrs: mustprogress uwtable
define internal noundef ptr @_ZNK7testing8internal30ValuesInIteratorRangeGeneratorIN4perf12_GLOBAL__N_18MatDepthEE8Iterator5CloneEv(ptr noundef nonnull align 8 dereferenceable(32) %0) unnamed_addr #6 align 2 personality ptr @__gxx_personality_v0 {
  %2 = alloca ptr, align 8
  %3 = alloca ptr, align 8
  %4 = alloca i32, align 4
  store ptr %0, ptr %2, align 8, !tbaa !441
  %5 = load ptr, ptr %2, align 8
  %6 = call noalias noundef nonnull ptr @_Znwm(i64 noundef 32) #26
  invoke void @_ZN7testing8internal30ValuesInIteratorRangeGeneratorIN4perf12_GLOBAL__N_18MatDepthEE8IteratorC2ERKS6_(ptr noundef nonnull align 8 dereferenceable(32) %6, ptr noundef nonnull align 8 dereferenceable(32) %5)
          to label %7 unwind label %8

7:                                                ; preds = %1
  ret ptr %6

8:                                                ; preds = %1
  %9 = landingpad { ptr, i32 }
          cleanup
  %10 = extractvalue { ptr, i32 } %9, 0
  store ptr %10, ptr %3, align 8
  %11 = extractvalue { ptr, i32 } %9, 1
  store i32 %11, ptr %4, align 4
  call void @_ZdlPv(ptr noundef %6) #27
  br label %12

12:                                               ; preds = %8
  %13 = load ptr, ptr %3, align 8
  %14 = load i32, ptr %4, align 4
  %15 = insertvalue { ptr, i32 } poison, ptr %13, 0
  %16 = insertvalue { ptr, i32 } %15, i32 %14, 1
  resume { ptr, i32 } %16
}